target datalayout = "e-m:e-p270:32:32-p271:32:32-p272:64:64-i64:64-i128:128-f80:128-n8:16:32:64-S128"
target triple = "x86_64-pc-linux-gnu"

%"class.ZXing::Quadrilateral" = type { %"struct.std::array.1" }
%"struct.std::array.1" = type { [4 x %"struct.ZXing::PointT"] }
%"struct.ZXing::PointT" = type { i32, i32 }
%"struct.ZXing::OneD::DataBar::Pair" = type { %"struct.ZXing::OneD::DataBar::Character", %"struct.ZXing::OneD::DataBar::Character", i32, i32, i32, i32, i32 }
%"struct.ZXing::OneD::DataBar::Character" = type { i32, i32 }

; Function Attrs: mustprogress nounwind uwtable
define linkonce_odr void @_ZN5ZXing13QuadrilateralINS_6PointTIiEEEC2ES2_S2_S2_S2_(ptr noundef nonnull align 4 dereferenceable(32) %0, i64 %1, i64 %2, i64 %3, i64 %4) unnamed_addr #2 comdat align 2 {
  %6 = alloca %"struct.ZXing::PointT", align 4
  %7 = alloca %"struct.ZXing::PointT", align 4
  %8 = alloca %"struct.ZXing::PointT", align 4
  %9 = alloca %"struct.ZXing::PointT", align 4
  %10 = alloca ptr, align 8
  store i64 %1, ptr %6, align 4
  store i64 %2, ptr %7, align 4
  store i64 %3, ptr %8, align 4
  store i64 %4, ptr %9, align 4
  store ptr %0, ptr %10, align 8, !tbaa !58
  %11 = load ptr, ptr %10, align 8
  %12 = getelementptr inbounds nuw %"struct.std::array.1", ptr %11, i32 0, i32 0
  call void @llvm.memcpy.p0.p0.i64(ptr align 4 %12, ptr align 4 %6, i64 8, i1 false), !tbaa.struct !60
  %13 = getelementptr inbounds %"struct.ZXing::PointT", ptr %12, i64 1
  call void @llvm.memcpy.p0.p0.i64(ptr align 4 %13, ptr align 4 %7, i64 8, i1 false), !tbaa.struct !60
  %14 = getelementptr inbounds %"struct.ZXing::PointT", ptr %12, i64 2
  call void @llvm.memcpy.p0.p0.i64(ptr align 4 %14, ptr align 4 %8, i64 8, i1 false), !tbaa.struct !60
  %15 = getelementptr inbounds %"struct.ZXing::PointT", ptr %12, i64 3
  call void @llvm.memcpy.p0.p0.i64(ptr align 4 %15, ptr align 4 %9, i64 8, i1 false), !tbaa.struct !60
  ret void
}

; Function Attrs: mustprogress nounwind uwtable
define linkonce_odr void @_ZN5ZXing6PointTIiEC2Eii(ptr noundef nonnull align 4 dereferenceable(8) %0, i32 noundef %1, i32 noundef %2) unnamed_addr #2 comdat align 2 {
  %4 = alloca ptr, align 8
  %5 = alloca i32, align 4
  %6 = alloca i32, align 4
  store ptr %0, ptr %4, align 8, !tbaa !53
  store i32 %1, ptr %5, align 4, !tbaa !3
  store i32 %2, ptr %6, align 4, !tbaa !3
  %7 = load ptr, ptr %4, align 8
  %8 = getelementptr inbounds nuw %"struct.ZXing::PointT", ptr %7, i32 0, i32 0
  %9 = load i32, ptr %5, align 4, !tbaa !3
  store i32 %9, ptr %8, align 4, !tbaa !55
  %10 = getelementptr inbounds nuw %"struct.ZXing::PointT", ptr %7, i32 0, i32 1
  %11 = load i32, ptr %6, align 4, !tbaa !3
  store i32 %11, ptr %10, align 4, !tbaa !57
  ret void
}

; Function Attrs: mustprogress uwtable
define linkonce_odr void @_ZN5ZXing4LineINS_6PointTIiEEEENS_13QuadrilateralIT_EEiii(ptr dead_on_unwind noalias writable sret(%"class.ZXing::Quadrilateral") align 4 %0, i32 noundef %1, i32 noundef %2, i32 noundef %3) #0 comdat {
  %5 = alloca i32, align 4
  %6 = alloca i32, align 4
  %7 = alloca i32, align 4
  %8 = alloca %"struct.ZXing::PointT", align 4
  %9 = alloca %"struct.ZXing::PointT", align 4
  %10 = alloca %"struct.ZXing::PointT", align 4
  %11 = alloca %"struct.ZXing::PointT", align 4
  store i32 %1, ptr %5, align 4, !tbaa !3
  store i32 %2, ptr %6, align 4, !tbaa !3
  store i32 %3, ptr %7, align 4, !tbaa !3
  %12 = load i32, ptr %6, align 4, !tbaa !3
  %13 = load i32, ptr %5, align 4, !tbaa !3
  call void @_ZN5ZXing6PointTIiEC2Eii(ptr noundef nonnull align 4 dereferenceable(8) %8, i32 noundef %12, i32 noundef %13)
  %14 = load i32, ptr %7, align 4, !tbaa !3
  %15 = load i32, ptr %5, align 4, !tbaa !3
  call void @_ZN5ZXing6PointTIiEC2Eii(ptr noundef nonnull align 4 dereferenceable(8) %9, i32 noundef %14, i32 noundef %15)
  %16 = load i32, ptr %7, align 4, !tbaa !3
  %17 = load i32, ptr %5, align 4, !tbaa !3
  call void @_ZN5ZXing6PointTIiEC2Eii(ptr noundef nonnull align 4 dereferenceable(8) %10, i32 noundef %16, i32 noundef %17)
  %18 = load i32, ptr %6, align 4, !tbaa !3
  %19 = load i32, ptr %5, align 4, !tbaa !3
  call void @_ZN5ZXing6PointTIiEC2Eii(ptr noundef nonnull align 4 dereferenceable(8) %11, i32 noundef %18, i32 noundef %19)
  %20 = load i64, ptr %8, align 4
  %21 = load i64, ptr %9, align 4
  %22 = load i64, ptr %10, align 4
  %23 = load i64, ptr %11, align 4
  call void @_ZN5ZXing13QuadrilateralINS_6PointTIiEEEC2ES2_S2_S2_S2_(ptr noundef nonnull align 4 dereferenceable(32) %0, i64 %20, i64 %21, i64 %22, i64 %23)
  ret void
}

; Function Attrs: mustprogress nounwind uwtable
define internal noundef zeroext i1 @_ZN5ZXing4OneD7DataBarL9IsStackedERKNS1_4PairES4_(ptr noundef nonnull align 4 dereferenceable(36) %0, ptr noundef nonnull align 4 dereferenceable(36) %1) #2 {
  %3 = alloca ptr, align 8
  %4 = alloca ptr, align 8
  store ptr %0, ptr %3, align 8, !tbaa !46
  store ptr %1, ptr %4, align 8, !tbaa !46
  %5 = load ptr, ptr %3, align 8, !tbaa !46
  %6 = getelementptr inbounds nuw %"struct.ZXing::OneD::DataBar::Pair", ptr %5, i32 0, i32 5
  %7 = load i32, ptr %6, align 4, !tbaa !48
  %8 = load ptr, ptr %4, align 8, !tbaa !46
  %9 = getelementptr inbounds nuw %"struct.ZXing::OneD::DataBar::Pair", ptr %8, i32 0, i32 5
  %10 = load i32, ptr %9, align 4, !tbaa !48
  %11 = sub nsw i32 %7, %10
  %12 = call i32 @llvm.abs.i32(i32 %11, i1 true)
  %13 = load ptr, ptr %3, align 8, !tbaa !46
  %14 = getelementptr inbounds nuw %"struct.ZXing::OneD::DataBar::Pair", ptr %13, i32 0, i32 4
  %15 = load i32, ptr %14, align 4, !tbaa !52
  %16 = load ptr, ptr %3, align 8, !tbaa !46
  %17 = getelementptr inbounds nuw %"struct.ZXing::OneD::DataBar::Pair", ptr %16, i32 0, i32 3
  %18 = load i32, ptr %17, align 4, !tbaa !51
  %19 = sub nsw i32 %15, %18
  %20 = icmp sgt i32 %12, %19
  br i1 %20, label %34, label %21

21:                                               ; preds = %2
  %22 = load ptr, ptr %4, align 8, !tbaa !46
  %23 = getelementptr inbounds nuw %"struct.ZXing::OneD::DataBar::Pair", ptr %22, i32 0, i32 3
  %24 = load i32, ptr %23, align 4, !tbaa !51
  %25 = load ptr, ptr %3, align 8, !tbaa !46
  %26 = getelementptr inbounds nuw %"struct.ZXing::OneD::DataBar::Pair", ptr %25, i32 0, i32 3
  %27 = load i32, ptr %26, align 4, !tbaa !51
  %28 = load ptr, ptr %3, align 8, !tbaa !46
  %29 = getelementptr inbounds nuw %"struct.ZXing::OneD::DataBar::Pair", ptr %28, i32 0, i32 4
  %30 = load i32, ptr %29, align 4, !tbaa !52
  %31 = add nsw i32 %27, %30
  %32 = sdiv i32 %31, 2
  %33 = icmp slt i32 %24, %32
  br label %34

34:                                               ; preds = %21, %2
  %35 = phi i1 [ true, %2 ], [ %33, %21 ]
  ret i1 %35
}

; Function Attrs: mustprogress uwtable
define void @_ZN5ZXing4OneD7DataBar16EstimatePositionERKNS1_4PairES4_(ptr dead_on_unwind noalias writable sret(%"class.ZXing::Quadrilateral") align 4 %0, ptr noundef nonnull align 4 dereferenceable(36) %1, ptr noundef nonnull align 4 dereferenceable(36) %2) #0 {
  %4 = alloca ptr, align 8
  %5 = alloca ptr, align 8
  %6 = alloca %"struct.ZXing::PointT", align 4
  %7 = alloca %"struct.ZXing::PointT", align 4
  %8 = alloca %"struct.ZXing::PointT", align 4
  %9 = alloca %"struct.ZXing::PointT", align 4
  store ptr %1, ptr %4, align 8, !tbaa !46
  store ptr %2, ptr %5, align 8, !tbaa !46
  %10 = load ptr, ptr %4, align 8, !tbaa !46
  %11 = load ptr, ptr %5, align 8, !tbaa !46
  %12 = call noundef zeroext i1 @_ZN5ZXing4OneD7DataBarL9IsStackedERKNS1_4PairES4_(ptr noundef nonnull align 4 dereferenceable(36) %10, ptr noundef nonnull align 4 dereferenceable(36) %11)
  br i1 %12, label %28, label %13

13:                                               ; preds = %3
  %14 = load ptr, ptr %4, align 8, !tbaa !46
  %15 = getelementptr inbounds nuw %"struct.ZXing::OneD::DataBar::Pair", ptr %14, i32 0, i32 5
  %16 = load i32, ptr %15, align 4, !tbaa !48
  %17 = load ptr, ptr %5, align 8, !tbaa !46
  %18 = getelementptr inbounds nuw %"struct.ZXing::OneD::DataBar::Pair", ptr %17, i32 0, i32 5
  %19 = load i32, ptr %18, align 4, !tbaa !48
  %20 = add nsw i32 %16, %19
  %21 = sdiv i32 %20, 2
  %22 = load ptr, ptr %4, align 8, !tbaa !46
  %23 = getelementptr inbounds nuw %"struct.ZXing::OneD::DataBar::Pair", ptr %22, i32 0, i32 3
  %24 = load i32, ptr %23, align 4, !tbaa !51
  %25 = load ptr, ptr %5, align 8, !tbaa !46
  %26 = getelementptr inbounds nuw %"struct.ZXing::OneD::DataBar::Pair", ptr %25, i32 0, i32 4
  %27 = load i32, ptr %26, align 4, !tbaa !52
  call void @_ZN5ZXing4LineINS_6PointTIiEEEENS_13QuadrilateralIT_EEiii(ptr dead_on_unwind writable sret(%"class.ZXing::Quadrilateral") align 4 %0, i32 noundef %21, i32 noundef %24, i32 noundef %27)
  br label %57

28:                                               ; preds = %3
  %29 = load ptr, ptr %4, align 8, !tbaa !46
  %30 = getelementptr inbounds nuw %"struct.ZXing::OneD::DataBar::Pair", ptr %29, i32 0, i32 3
  %31 = load i32, ptr %30, align 4, !tbaa !51
  %32 = load ptr, ptr %4, align 8, !tbaa !46
  %33 = getelementptr inbounds nuw %"struct.ZXing::OneD::DataBar::Pair", ptr %32, i32 0, i32 5
  %34 = load i32, ptr %33, align 4, !tbaa !48
  call void @_ZN5ZXing6PointTIiEC2Eii(ptr noundef nonnull align 4 dereferenceable(8) %6, i32 noundef %31, i32 noundef %34)
  %35 = load ptr, ptr %4, align 8, !tbaa !46
  %36 = getelementptr inbounds nuw %"struct.ZXing::OneD::DataBar::Pair", ptr %35, i32 0, i32 4
  %37 = load i32, ptr %36, align 4, !tbaa !52
  %38 = load ptr, ptr %4, align 8, !tbaa !46
  %39 = getelementptr inbounds nuw %"struct.ZXing::OneD::DataBar::Pair", ptr %38, i32 0, i32 5
  %40 = load i32, ptr %39, align 4, !tbaa !48
  call void @_ZN5ZXing6PointTIiEC2Eii(ptr noundef nonnull align 4 dereferenceable(8) %7, i32 noundef %37, i32 noundef %40)
  %41 = load ptr, ptr %5, align 8, !tbaa !46
  %42 = getelementptr inbounds nuw %"struct.ZXing::OneD::DataBar::Pair", ptr %41, i32 0, i32 4
  %43 = load i32, ptr %42, align 4, !tbaa !52
  %44 = load ptr, ptr %5, align 8, !tbaa !46
  %45 = getelementptr inbounds nuw %"struct.ZXing::OneD::DataBar::Pair", ptr %44, i32 0, i32 5
  %46 = load i32, ptr %45, align 4, !tbaa !48
  call void @_ZN5ZXing6PointTIiEC2Eii(ptr noundef nonnull align 4 dereferenceable(8) %8, i32 noundef %43, i32 noundef %46)
  %47 = load ptr, ptr %5, align 8, !tbaa !46
  %48 = getelementptr inbounds nuw %"struct.ZXing::OneD::DataBar::Pair", ptr %47, i32 0, i32 3
  %49 = load i32, ptr %48, align 4, !tbaa !51
  %50 = load ptr, ptr %5, align 8, !tbaa !46
  %51 = getelementptr inbounds nuw %"struct.ZXing::OneD::DataBar::Pair", ptr %50, i32 0, i32 5
  %52 = load i32, ptr %51, align 4, !tbaa !48
  call void @_ZN5ZXing6PointTIiEC2Eii(ptr noundef nonnull align 4 dereferenceable(8) %9, i32 noundef %49, i32 noundef %52)
  %53 = load i64, ptr %6, align 4
  %54 = load i64, ptr %7, align 4
  %55 = load i64, ptr %8, align 4
  %56 = load i64, ptr %9, align 4
  call void @_ZN5ZXing13QuadrilateralINS_6PointTIiEEEC2ES2_S2_S2_S2_(ptr noundef nonnull align 4 dereferenceable(32) %0, i64 %53, i64 %54, i64 %55, i64 %56)
  br label %57

57:                                               ; preds = %28, %13
  ret void
}