; Function Attrs: mustprogress nofree norecurse nosync nounwind willreturn memory(argmem: readwrite) uwtable
define void @_ZN5ZXing4OneD7DataBar16EstimatePositionERKNS1_4PairES4_(ptr dead_on_unwind noalias writable writeonly sret(%"class.ZXing::Quadrilateral") align 4 captures(none) initializes((0, 32)) %0, ptr noundef nonnull readonly align 4 captures(none) dereferenceable(36) %1, ptr noundef nonnull readonly align 4 captures(none) dereferenceable(36) %2) local_unnamed_addr #3 {
  %4 = getelementptr inbounds nuw i8, ptr %2, i64 20
  %.val = load i32, ptr %4, align 4
  %5 = getelementptr inbounds nuw i8, ptr %2, i64 28
  %.val14 = load i32, ptr %5, align 4, !tbaa !36
  %6 = getelementptr inbounds nuw i8, ptr %1, i64 28
  %7 = load i32, ptr %6, align 4, !tbaa !36
  %8 = sub nsw i32 %7, %.val14
  %9 = tail call i32 @llvm.abs.i32(i32 %8, i1 true)
  %10 = getelementptr inbounds nuw i8, ptr %1, i64 24
  %11 = load i32, ptr %10, align 4, !tbaa !39
  %12 = getelementptr inbounds nuw i8, ptr %1, i64 20
  %13 = load i32, ptr %12, align 4, !tbaa !40
  %14 = sub nsw i32 %11, %13
  %15 = icmp sgt i32 %9, %14
  br i1 %15, label %_ZN5ZXing4OneD7DataBarL9IsStackedERKNS1_4PairES4_.exit.thread, label %_ZN5ZXing4OneD7DataBarL9IsStackedERKNS1_4PairES4_.exit

_ZN5ZXing4OneD7DataBarL9IsStackedERKNS1_4PairES4_.exit: ; preds = %3
  %16 = add nsw i32 %13, %11
  %17 = sdiv i32 %16, 2
  %18 = icmp slt i32 %.val, %17
  br i1 %18, label %_ZN5ZXing4OneD7DataBarL9IsStackedERKNS1_4PairES4_.exit.thread, label %19

19:                                               ; preds = %_ZN5ZXing4OneD7DataBarL9IsStackedERKNS1_4PairES4_.exit
  %20 = add nsw i32 %7, %.val14
  %21 = sdiv i32 %20, 2
  %22 = getelementptr inbounds nuw i8, ptr %2, i64 24
  %23 = load i32, ptr %22, align 4, !tbaa !39
  %.sroa.213.0.insert.ext.i = zext i32 %21 to i64
  %.sroa.213.0.insert.shift.i = shl nuw i64 %.sroa.213.0.insert.ext.i, 32
  %.sroa.012.0.insert.ext.i = zext i32 %13 to i64
  %.sroa.012.0.insert.insert.i = or disjoint i64 %.sroa.213.0.insert.shift.i, %.sroa.012.0.insert.ext.i
  %.sroa.010.0.insert.ext.i = zext i32 %23 to i64
  %.sroa.010.0.insert.insert.i = or disjoint i64 %.sroa.213.0.insert.shift.i, %.sroa.010.0.insert.ext.i
  br label %26

_ZN5ZXing4OneD7DataBarL9IsStackedERKNS1_4PairES4_.exit.thread: ; preds = %3, %_ZN5ZXing4OneD7DataBarL9IsStackedERKNS1_4PairES4_.exit
  %24 = getelementptr inbounds nuw i8, ptr %2, i64 24
  %25 = load i32, ptr %24, align 4, !tbaa !39
  %.sroa.220.0.insert.ext = zext i32 %7 to i64
  %.sroa.220.0.insert.shift = shl nuw i64 %.sroa.220.0.insert.ext, 32
  %.sroa.019.0.insert.ext = zext i32 %13 to i64
  %.sroa.019.0.insert.insert = or disjoint i64 %.sroa.220.0.insert.shift, %.sroa.019.0.insert.ext
  %.sroa.017.0.insert.ext = zext i32 %11 to i64
  %.sroa.017.0.insert.insert = or disjoint i64 %.sroa.220.0.insert.shift, %.sroa.017.0.insert.ext
  %.sroa.216.0.insert.ext = zext i32 %.val14 to i64
  %.sroa.216.0.insert.shift = shl nuw i64 %.sroa.216.0.insert.ext, 32
  %.sroa.015.0.insert.ext = zext i32 %25 to i64
  %.sroa.015.0.insert.insert = or disjoint i64 %.sroa.216.0.insert.shift, %.sroa.015.0.insert.ext
  %.sroa.0.0.insert.ext = zext i32 %.val to i64
  %.sroa.0.0.insert.insert = or disjoint i64 %.sroa.216.0.insert.shift, %.sroa.0.0.insert.ext
  br label %26

26:                                               ; preds = %_ZN5ZXing4OneD7DataBarL9IsStackedERKNS1_4PairES4_.exit.thread, %19
  %.sroa.019.0.insert.insert.sink = phi i64 [ %.sroa.019.0.insert.insert, %_ZN5ZXing4OneD7DataBarL9IsStackedERKNS1_4PairES4_.exit.thread ], [ %.sroa.012.0.insert.insert.i, %19 ]
  %.sroa.017.0.insert.insert.sink = phi i64 [ %.sroa.017.0.insert.insert, %_ZN5ZXing4OneD7DataBarL9IsStackedERKNS1_4PairES4_.exit.thread ], [ %.sroa.010.0.insert.insert.i, %19 ]
  %.sroa.015.0.insert.insert.sink = phi i64 [ %.sroa.015.0.insert.insert, %_ZN5ZXing4OneD7DataBarL9IsStackedERKNS1_4PairES4_.exit.thread ], [ %.sroa.010.0.insert.insert.i, %19 ]
  %.sroa.0.0.insert.insert.sink = phi i64 [ %.sroa.0.0.insert.insert, %_ZN5ZXing4OneD7DataBarL9IsStackedERKNS1_4PairES4_.exit.thread ], [ %.sroa.012.0.insert.insert.i, %19 ]
  store i64 %.sroa.019.0.insert.insert.sink, ptr %0, align 4
  %27 = getelementptr inbounds nuw i8, ptr %0, i64 8
  store i64 %.sroa.017.0.insert.insert.sink, ptr %27, align 4
  %28 = getelementptr inbounds nuw i8, ptr %0, i64 16
  store i64 %.sroa.015.0.insert.insert.sink, ptr %28, align 4
  %29 = getelementptr inbounds nuw i8, ptr %0, i64 24
  store i64 %.sroa.0.0.insert.insert.sink, ptr %29, align 4
  ret void
}